target datalayout = "e-m:e-p270:32:32-p271:32:32-p272:64:64-i64:64-i128:128-f80:128-n8:16:32:64-S128"
target triple = "x86_64-pc-linux-gnu"

%struct.epan_dissect = type { ptr, ptr, ptr, %struct._packet_info }
%struct._packet_info = type { ptr, ptr, i32, i32, %struct.nstime_t, %struct.nstime_t, %struct.nstime_t, i8, ptr, ptr, ptr, ptr, %struct._address, %struct._address, %struct._address, %struct._address, %struct._address, %struct._address, i32, ptr, i8, [3 x i8], %struct.anon, i32, i32, i32, i32, ptr, i8, ptr, ptr, i16, i16, i32, i32, i16, i32, i32, ptr, ptr, ptr, i8, i8, i16, i16, i16, i32, i16, i16, ptr, ptr, ptr, ptr, ptr, i32, i32 }
%struct.nstime_t = type { i64, i32 }
%struct._address = type { i32, i32, ptr, ptr }
%struct.anon = type { i8, [3 x i8] }

; Function Attrs: null_pointer_is_valid sspstrong uwtable
define void @epan_dissect_fake_protocols(ptr noundef %0, i1 noundef zeroext %1) #5 {
  %3 = alloca ptr, align 8
  %4 = alloca i8, align 1
  store ptr %0, ptr %3, align 8
  %5 = zext i1 %1 to i8
  store i8 %5, ptr %4, align 1
  %6 = load ptr, ptr %3, align 8
  %7 = icmp ne ptr %6, null
  br i1 %7, label %8, label %14

8:                                                ; preds = %2
  %9 = load ptr, ptr %3, align 8
  %10 = getelementptr inbounds nuw %struct.epan_dissect, ptr %9, i32 0, i32 2
  %11 = load ptr, ptr %10, align 8
  %12 = load i8, ptr %4, align 1, !range !6, !noundef !7
  %13 = trunc i8 %12 to i1
  call void @proto_tree_set_fake_protocols(ptr noundef %11, i1 noundef zeroext %13)
  br label %14

14:                                               ; preds = %8, %2
  ret void
}