; Function Attrs: null_pointer_is_valid sspstrong uwtable
define void @epan_dissect_fake_protocols(ptr noundef readonly captures(address_is_null) %0, i1 noundef zeroext %1) local_unnamed_addr #6 {
  %.not = icmp eq ptr %0, null
  br i1 %.not, label %6, label %3

3:                                                ; preds = %2
  %4 = getelementptr inbounds nuw i8, ptr %0, i64 16
  %5 = load ptr, ptr %4, align 8
  tail call void @proto_tree_set_fake_protocols(ptr noundef %5, i1 noundef zeroext %1)
  br label %6

6:                                                ; preds = %3, %2
  ret void
}